; Function Attrs: nounwind uwtable
define dso_local void @ReorderBufferCommit(ptr noundef %0, i32 noundef %1, i64 noundef %2, i64 noundef %3, i64 noundef %4, i16 noundef zeroext %5, i64 noundef %6) local_unnamed_addr #0 {
  %8 = alloca i32, align 4
  %9 = alloca i8, align 1
  call void @llvm.lifetime.start.p0(i64 4, ptr nonnull %8)
  store i32 %1, ptr %8, align 4
  call void @llvm.lifetime.start.p0(i64 1, ptr nonnull %9) #19
  %10 = getelementptr inbounds nuw i8, ptr %0, i64 64
  %11 = load i32, ptr %10, align 8
  %.not.i = icmp ne i32 %11, 0
  %12 = icmp eq i32 %11, %1
  %or.cond.i = and i1 %.not.i, %12
  br i1 %or.cond.i, label %13, label %16

13:                                               ; preds = %7
  %14 = getelementptr inbounds nuw i8, ptr %0, i64 72
  %15 = load ptr, ptr %14, align 8
  %.not34.i = icmp eq ptr %15, null
  call void @llvm.lifetime.end.p0(i64 1, ptr nonnull %9) #19
  call void @llvm.lifetime.end.p0(i64 4, ptr nonnull %8)
  br i1 %.not34.i, label %ReorderBufferTXNByXid.exit.thread, label %ReorderBufferTXNByXid.exit.thread11

16:                                               ; preds = %7
  %17 = load ptr, ptr %0, align 8
  %18 = call ptr @hash_search(ptr noundef %17, ptr noundef nonnull %8, i32 noundef 0, ptr noundef nonnull %9) #19
  %19 = load i8, ptr %9, align 1, !range !6, !noundef !7
  %20 = trunc nuw i8 %19 to i1
  br i1 %20, label %ReorderBufferTXNByXid.exit, label %ReorderBufferTXNByXid.exit.thread14

ReorderBufferTXNByXid.exit.thread14:              ; preds = %16
  %21 = load i32, ptr %8, align 4
  store i32 %21, ptr %10, align 8
  %22 = getelementptr inbounds nuw i8, ptr %0, i64 72
  store ptr null, ptr %22, align 8
  call void @llvm.lifetime.end.p0(i64 1, ptr nonnull %9) #19
  call void @llvm.lifetime.end.p0(i64 4, ptr nonnull %8)
  br label %ReorderBufferTXNByXid.exit.thread

ReorderBufferTXNByXid.exit:                       ; preds = %16
  %23 = getelementptr inbounds nuw i8, ptr %18, i64 8
  %24 = load ptr, ptr %23, align 8
  %25 = load i32, ptr %8, align 4
  store i32 %25, ptr %10, align 8
  %26 = getelementptr inbounds nuw i8, ptr %0, i64 72
  store ptr %24, ptr %26, align 8
  call void @llvm.lifetime.end.p0(i64 1, ptr nonnull %9) #19
  call void @llvm.lifetime.end.p0(i64 4, ptr nonnull %8)
  %27 = icmp eq ptr %24, null
  br i1 %27, label %ReorderBufferTXNByXid.exit.thread, label %ReorderBufferTXNByXid.exit.thread11

ReorderBufferTXNByXid.exit.thread11:              ; preds = %13, %ReorderBufferTXNByXid.exit
  %.0.i13 = phi ptr [ %24, %ReorderBufferTXNByXid.exit ], [ %15, %13 ]
  call fastcc void @ReorderBufferReplay(ptr noundef %.0.i13, ptr noundef nonnull %0, i64 noundef %2, i64 noundef %3, i64 noundef %4, i16 noundef zeroext %5, i64 noundef %6)
  br label %ReorderBufferTXNByXid.exit.thread

ReorderBufferTXNByXid.exit.thread:                ; preds = %13, %ReorderBufferTXNByXid.exit.thread14, %ReorderBufferTXNByXid.exit, %ReorderBufferTXNByXid.exit.thread11
  ret void
}